; Function Attrs: nofree nounwind uwtable
define noundef ptr @Gia_SortFloats(ptr noundef captures(none) %0, ptr noundef %1, i32 noundef %2) local_unnamed_addr #11 {
  %4 = icmp eq ptr %1, null
  br i1 %4, label %5, label %.loopexit

5:                                                ; preds = %3
  %6 = sext i32 %2 to i64
  %7 = shl nsw i64 %6, 2
  %8 = tail call noalias ptr @malloc(i64 noundef %7) #17
  %9 = icmp sgt i32 %2, 0
  br i1 %9, label %.lr.ph.preheader, label %.loopexit

.lr.ph.preheader:                                 ; preds = %5
  %wide.trip.count = zext nneg i32 %2 to i64
  br label %.lr.ph

.lr.ph:                                           ; preds = %.lr.ph.preheader, %.lr.ph
  %indvars.iv = phi i64 [ 0, %.lr.ph.preheader ], [ %indvars.iv.next, %.lr.ph ]
  %10 = getelementptr inbounds nuw i32, ptr %8, i64 %indvars.iv
  %11 = trunc nuw nsw i64 %indvars.iv to i32
  store i32 %11, ptr %10, align 4, !tbaa !5
  %indvars.iv.next = add nuw nsw i64 %indvars.iv, 1
  %exitcond.not = icmp eq i64 %indvars.iv.next, %wide.trip.count
  br i1 %exitcond.not, label %.loopexit, label %.lr.ph, !llvm.loop !33

.loopexit:                                        ; preds = %.lr.ph, %5, %3
  %.011 = phi ptr [ %1, %3 ], [ %8, %5 ], [ %8, %.lr.ph ]
  tail call fastcc void @sort_rec3(ptr noundef %0, ptr noundef %.011, i32 noundef %2)
  ret ptr %.011
}